(dp1
S'SubjectList'
p2
ccollections
OrderedDict
p3
((lp4
(lp5
VAgriculture
p6
aV\u0627\u0644\u0632\u0631\u0627\u0639\u0629
p7
aa(lp8
VArts
p9
aV\u0627\u0644\u0641\u0646\u0648\u0646
p10
aa(lp11
VBusiness and Finance
p12
aV\u0627\u0644\u062a\u062c\u0627\u0631\u064a\u0629 \u0648\u0627\u0644\u0645\u0627\u0644\u064a\u0629
p13
aa(lp14
VEnvironment
p15
aV\u0627\u0644\u0628\u064a\u0626\u0629
p16
aa(lp17
VFood and Nutrition
p18
aV\u0627\u0644\u063a\u0630\u0627\u0621 \u0648\u0627\u0644\u062a\u063a\u0630\u064a\u0629
p19
aa(lp20
VGeography
p21
aV\u0627\u0644\u062c\u063a\u0631\u0627\u0641\u064a\u0629
p22
aa(lp23
VHealth and Medicine
p24
aV\u0627\u0644\u0635\u062d\u0629 \u0648 \u0627\u0644\u0637\u0628
p25
aa(lp26
VHistory
p27
aV\u0627\u0644\u062a\u0627\u0631\u064a\u062e
p28
aa(lp29
VHuman Development
p30
aV\u0627\u0644\u062a\u0646\u0645\u064a\u0629 \u0627\u0644\u0628\u0634\u0631\u064a\u0629
p31
aa(lp32
VLanguages
p33
aV\u0627\u0644\u0644\u063a\u0627\u062a
p34
aa(lp35
VLaw
p36
aV\u0627\u0644\u0642\u0627\u0646\u0648\u0646
p37
aa(lp38
VLearning
p39
aV\u0627\u0644\u062a\u0639\u0644\u0645
p40
aa(lp41
VLiterature
p42
aV\u0627\u0644\u0623\u062f\u0628
p43
aa(lp44
VMath
p45
aV\u0627\u0644\u0631\u064a\u0627\u0636\u064a\u0627\u062a
p46
aa(lp47
VMusic
p48
aV\u0627\u0644\u0645\u0648\u0633\u064a\u0642\u0649
p49
aa(lp50
VPolitics and Government
p51
aV\u0627\u0644\u0633\u064a\u0627\u0633\u0629 \u0648\u0627\u0644\u062d\u0643\u0648\u0645\u0629
p52
aa(lp53
VReference
p54
aV\u0627\u0644\u0645\u0631\u062c\u0639
p55
aa(lp56
VReligion
p57
aV\u0627\u0644\u062f\u064a\u0646
p58
aa(lp59
VScience
p60
aV\u0627\u0644\u0639\u0644\u0645
p61
aa(lp62
VSocial Sciences
p63
aV\u0627\u0644\u0639\u0644\u0648\u0645 \u0627\u0644\u0627\u062c\u062a\u0645\u0627\u0639\u064a\u0629
p64
aa(lp65
VSports
p66
aV\u0627\u0644\u0631\u064a\u0627\u0636\u0629
p67
aa(lp68
VTechnology
p69
aV\u0627\u0644\u062a\u0643\u0646\u0648\u0644\u0648\u062c\u064a\u0627
p70
aatRp71
sS'mediaList'
p72
g3
((lp73
(lp74
VText
p75
aV\u0627\u0644\u0646\u0635
p76
aa(lp77
VGraphics/Pictures
p78
aV\u0627\u0644\u0635\u0648\u0631
p79
aa(lp80
VAudio/Music/Book
p81
aV\u0633\u0645\u0639\u064a
p82
aa(lp83
VVideo
p84
aV\u0641\u064a\u062f\u064a\u0648
p85
aatRp86
sS'LevelArray'
p87
g3
((lp88
(lp89
VEarly Education
p90
aV\u0627\u0644\u062a\u0639\u0644\u064a\u0645 \u0627\u0644\u0645\u0628\u0643\u0631
p91
aa(lp92
VLower Primary
p93
aV\u0627\u0644\u0627\u0628\u062a\u062f\u0627\u0626\u064a\u0629
p94
aa(lp95
VUpper Primary
p96
aV\u0627\u0644\u0627\u0628\u062a\u062f\u0627\u0626\u064a\u0629 \u0627\u0644\u0639\u0644\u064a\u0627
p97
aa(lp98
VLower Secondary
p99
aV\u0627\u0644\u062b\u0627\u0646\u0648\u064a
p100
aa(lp101
VUpper Secondary
p102
aV\u0627\u0644\u062b\u0627\u0646\u0648\u064a \u0627\u0644\u0623\u0639\u0644\u0649
p103
aa(lp104
VUndergraduate
p105
aV\u063a\u064a\u0631\u0645\u062a\u062e\u0631\u062c \u0645\u0646 \u0627\u0644\u062c\u0627\u0645\u0639\u0629
p106
aa(lp107
VGraduate
p108
aV\u0628\u0639\u062f \u0627\u0644\u062a\u062e\u0631\u062c \u0645\u0646 \u0627\u0644\u062c\u0627\u0645\u0639\u0629
p109
aa(lp110
VProfessional
p111
aV\u0645\u0647\u0646\u064a
p112
aatRp113
s.